; Function Attrs: nounwind uwtable
define internal i32 @gdsdb_slice_response(ptr noundef %0, ptr readnone captures(none) %1, ptr readnone captures(none) %2, i32 noundef %3) #0 {
  %5 = tail call i32 @tvb_reported_length_remaining(ptr noundef %0, i32 noundef %3) #3
  %6 = icmp slt i32 %5, 4
  br i1 %6, label %9, label %7

7:                                                ; preds = %4
  %8 = tail call i32 @tvb_reported_length(ptr noundef %0) #3
  br label %9

9:                                                ; preds = %4, %7
  %.0 = phi i32 [ %8, %7 ], [ -1, %4 ]
  ret i32 %.0
}